target datalayout = "e-m:e-p270:32:32-p271:32:32-p272:64:64-i64:64-i128:128-f80:128-n8:16:32:64-S128"
target triple = "x86_64-unknown-linux-gnu"

%"class.datalog::relation_signature" = type { %"class.datalog::tr_infrastructure<datalog::relation_traits>::signature_base" }
%"class.datalog::tr_infrastructure<datalog::relation_traits>::signature_base" = type { %class.ptr_vector }
%class.ptr_vector = type { %class.vector }
%class.vector = type { ptr }
%class.vector.0 = type { ptr }
%"class.datalog::table_signature" = type <{ %"class.datalog::tr_infrastructure<datalog::table_traits>::signature_base", i32, [4 x i8] }>
%"class.datalog::tr_infrastructure<datalog::table_traits>::signature_base" = type { %class.svector }
%class.svector = type { %class.vector.0 }
%"class.datalog::finite_product_relation" = type { %"class.datalog::relation_base.base", [4 x i8], %"class.datalog::table_signature", %class.svector.1, %class.svector.1, %"class.datalog::relation_signature", %class.svector.1, %class.svector.1, ptr, i32, ptr, %class.ptr_vector.3, %class.svector.1, i32, %class.uint_set, %class.scoped_ptr, %class.scoped_ptr.5 }
%"class.datalog::relation_base.base" = type { %"class.datalog::tr_infrastructure<datalog::relation_traits>::base_ancestor.base" }
%"class.datalog::tr_infrastructure<datalog::relation_traits>::base_ancestor.base" = type <{ ptr, ptr, %"class.datalog::relation_signature", i32 }>
%class.ptr_vector.3 = type { %class.vector.4 }
%class.vector.4 = type { ptr }
%class.svector.1 = type { %class.vector.2 }
%class.vector.2 = type { ptr }
%class.uint_set = type { %class.svector.1 }
%class.scoped_ptr = type { ptr }
%class.scoped_ptr.5 = type { ptr }

; Function Attrs: mustprogress uwtable
define hidden noundef zeroext i1 @_ZNK7datalog23finite_product_relation5emptyEv(ptr noundef nonnull align 8 dereferenceable(160) %this) unnamed_addr #4 align 2 {
entry:
  %this.addr = alloca ptr, align 8
  store ptr %this, ptr %this.addr, align 8
  %this1 = load ptr, ptr %this.addr, align 8
  call void @_ZNK7datalog23finite_product_relation15garbage_collectEb(ptr noundef nonnull align 8 dereferenceable(160) %this1, i1 noundef zeroext true)
  %m_table = getelementptr inbounds %"class.datalog::finite_product_relation", ptr %this1, i32 0, i32 10
  %0 = load ptr, ptr %m_table, align 8
  %vtable = load ptr, ptr %0, align 8
  %vfn = getelementptr inbounds ptr, ptr %vtable, i64 3
  %1 = load ptr, ptr %vfn, align 8
  %call = call noundef zeroext i1 %1(ptr noundef nonnull align 8 dereferenceable(36) %0)
  ret i1 %call
}