; Function Attrs: mustprogress uwtable
define hidden noundef zeroext i1 @_ZNK7datalog23finite_product_relation5emptyEv(ptr noundef nonnull align 8 dereferenceable(160) %this) unnamed_addr #3 align 2 {
entry:
  tail call void @_ZNK7datalog23finite_product_relation15garbage_collectEb(ptr noundef nonnull align 8 dereferenceable(160) %this, i1 noundef zeroext true)
  %m_table = getelementptr inbounds i8, ptr %this, i64 104
  %0 = load ptr, ptr %m_table, align 8
  %vtable = load ptr, ptr %0, align 8
  %vfn = getelementptr inbounds i8, ptr %vtable, i64 24
  %1 = load ptr, ptr %vfn, align 8
  %call = tail call noundef zeroext i1 %1(ptr noundef nonnull align 8 dereferenceable(36) %0)
  ret i1 %call
}